target datalayout = "e-m:e-p270:32:32-p271:32:32-p272:64:64-i64:64-i128:128-f80:128-n8:16:32:64-S128"
target triple = "x86_64-pc-linux-gnu"

%"class.rocksdb::cassandra::ColumnBase" = type <{ ptr, i8, i8, [6 x i8] }>
%"class.rocksdb::cassandra::ColumnBase.base" = type <{ ptr, i8, i8 }>
%"class.rocksdb::cassandra::Tombstone" = type { %"class.rocksdb::cassandra::ColumnBase.base", i32, i64 }

; Function Attrs: mustprogress nounwind uwtable
define void @_ZN7rocksdb9cassandra10ColumnBaseC2Eaa(ptr noundef nonnull align 8 dereferenceable(10) %0, i8 noundef signext %1, i8 noundef signext %2) unnamed_addr #0 align 2 {
  %4 = alloca ptr, align 8
  %5 = alloca i8, align 1
  %6 = alloca i8, align 1
  store ptr %0, ptr %4, align 8, !tbaa !4
  store i8 %1, ptr %5, align 1, !tbaa !9
  store i8 %2, ptr %6, align 1, !tbaa !9
  %7 = load ptr, ptr %4, align 8
  store ptr getelementptr inbounds inrange(-16, 56) ({ [9 x ptr] }, ptr @_ZTVN7rocksdb9cassandra10ColumnBaseE, i32 0, i32 0, i32 2), ptr %7, align 8, !tbaa !10
  %8 = getelementptr inbounds nuw %"class.rocksdb::cassandra::ColumnBase", ptr %7, i32 0, i32 1
  %9 = load i8, ptr %5, align 1, !tbaa !9
  store i8 %9, ptr %8, align 8, !tbaa !12
  %10 = getelementptr inbounds nuw %"class.rocksdb::cassandra::ColumnBase", ptr %7, i32 0, i32 2
  %11 = load i8, ptr %6, align 1, !tbaa !9
  store i8 %11, ptr %10, align 1, !tbaa !14
  ret void
}

; Function Attrs: mustprogress nounwind uwtable
define void @_ZN7rocksdb9cassandra9TombstoneC2Eaail(ptr noundef nonnull align 8 dereferenceable(24) %0, i8 noundef signext %1, i8 noundef signext %2, i32 noundef %3, i64 noundef %4) unnamed_addr #0 align 2 {
  %6 = alloca ptr, align 8
  %7 = alloca i8, align 1
  %8 = alloca i8, align 1
  %9 = alloca i32, align 4
  %10 = alloca i64, align 8
  store ptr %0, ptr %6, align 8, !tbaa !76
  store i8 %1, ptr %7, align 1, !tbaa !9
  store i8 %2, ptr %8, align 1, !tbaa !9
  store i32 %3, ptr %9, align 4, !tbaa !21
  store i64 %4, ptr %10, align 8, !tbaa !19
  %11 = load ptr, ptr %6, align 8
  %12 = load i8, ptr %7, align 1, !tbaa !9
  %13 = load i8, ptr %8, align 1, !tbaa !9
  call void @_ZN7rocksdb9cassandra10ColumnBaseC2Eaa(ptr noundef nonnull align 8 dereferenceable(10) %11, i8 noundef signext %12, i8 noundef signext %13)
  store ptr getelementptr inbounds inrange(-16, 56) ({ [9 x ptr] }, ptr @_ZTVN7rocksdb9cassandra9TombstoneE, i32 0, i32 0, i32 2), ptr %11, align 8, !tbaa !10
  %14 = getelementptr inbounds nuw %"class.rocksdb::cassandra::Tombstone", ptr %11, i32 0, i32 1
  %15 = load i32, ptr %9, align 4, !tbaa !21
  store i32 %15, ptr %14, align 4, !tbaa !78
  %16 = getelementptr inbounds nuw %"class.rocksdb::cassandra::Tombstone", ptr %11, i32 0, i32 2
  %17 = load i64, ptr %10, align 8, !tbaa !19
  store i64 %17, ptr %16, align 8, !tbaa !80
  ret void
}