; Function Attrs: mustprogress nofree norecurse nosync nounwind willreturn memory(argmem: write) uwtable
define void @_ZN7rocksdb9cassandra9TombstoneC2Eaail(ptr noundef nonnull writeonly align 8 captures(none) dereferenceable(24) initializes((0, 10), (12, 24)) %0, i8 noundef signext %1, i8 noundef signext %2, i32 noundef %3, i64 noundef %4) unnamed_addr #0 align 2 {
  %6 = getelementptr inbounds nuw i8, ptr %0, i64 8
  store i8 %1, ptr %6, align 8, !tbaa !7
  %7 = getelementptr inbounds nuw i8, ptr %0, i64 9
  store i8 %2, ptr %7, align 1, !tbaa !10
  store ptr getelementptr inbounds nuw inrange(-16, 56) (i8, ptr @_ZTVN7rocksdb9cassandra9TombstoneE, i64 16), ptr %0, align 8, !tbaa !4
  %8 = getelementptr inbounds nuw i8, ptr %0, i64 12
  store i32 %3, ptr %8, align 4, !tbaa !84
  %9 = getelementptr inbounds nuw i8, ptr %0, i64 16
  store i64 %4, ptr %9, align 8, !tbaa !86
  ret void
}